target datalayout = "e-m:e-p270:32:32-p271:32:32-p272:64:64-i64:64-i128:128-f80:128-n8:16:32:64-S128"
target triple = "x86_64-pc-linux-gnu"

%"class.open_spiel::phantom_go::PhantomGoBoard" = type <{ %"struct.std::array.3", [2 x i8], %"struct.std::array.5", i8, i8, [2 x i8], i32, %"struct.std::array.6", [2 x i8], %"struct.std::array.7", i64, %"struct.std::array.8", i32, i32, i16, [6 x i8] }>
%"struct.std::array.3" = type { [2 x %"struct.std::array.4"] }
%"struct.std::array.4" = type { [361 x i8] }
%"struct.std::array.5" = type { [2 x i32] }
%"struct.std::array.6" = type { [441 x %"struct.open_spiel::phantom_go::PhantomGoBoard::Vertex"] }
%"struct.open_spiel::phantom_go::PhantomGoBoard::Vertex" = type { i16, i16, i8 }
%"struct.std::array.7" = type { [441 x %"struct.open_spiel::phantom_go::PhantomGoBoard::Chain"] }
%"struct.open_spiel::phantom_go::PhantomGoBoard::Chain" = type { i32, i16, i16, i16 }
%"struct.std::array.8" = type { [4 x i16] }
%class.anon.33 = type { ptr, i8, ptr }

; Function Attrs: mustprogress nounwind uwtable
define linkonce_odr noundef nonnull align 4 dereferenceable(12) ptr @_ZNSt14__array_traitsIN10open_spiel10phantom_go14PhantomGoBoard5ChainELm441EE6_S_refERA441_KS3_m(ptr noundef nonnull align 4 dereferenceable(5292) %0, i64 noundef %1) #4 comdat align 2 {
  %3 = alloca ptr, align 8
  %4 = alloca i64, align 8
  store ptr %0, ptr %3, align 8
  store i64 %1, ptr %4, align 8
  %5 = load ptr, ptr %3, align 8
  %6 = load i64, ptr %4, align 8
  %7 = getelementptr inbounds [441 x %"struct.open_spiel::phantom_go::PhantomGoBoard::Chain"], ptr %5, i64 0, i64 %6
  ret ptr %7
}

; Function Attrs: mustprogress nounwind uwtable
define linkonce_odr noundef nonnull align 2 dereferenceable(6) ptr @_ZNSt14__array_traitsIN10open_spiel10phantom_go14PhantomGoBoard6VertexELm441EE6_S_refERA441_KS3_m(ptr noundef nonnull align 2 dereferenceable(2646) %0, i64 noundef %1) #4 comdat align 2 {
  %3 = alloca ptr, align 8
  %4 = alloca i64, align 8
  store ptr %0, ptr %3, align 8
  store i64 %1, ptr %4, align 8
  %5 = load ptr, ptr %3, align 8
  %6 = load i64, ptr %4, align 8
  %7 = getelementptr inbounds [441 x %"struct.open_spiel::phantom_go::PhantomGoBoard::Vertex"], ptr %5, i64 0, i64 %6
  ret ptr %7
}

; Function Attrs: mustprogress nounwind uwtable
define linkonce_odr noundef nonnull align 4 dereferenceable(12) ptr @_ZNKSt5arrayIN10open_spiel10phantom_go14PhantomGoBoard5ChainELm441EEixEm(ptr noundef nonnull align 4 dereferenceable(5292) %0, i64 noundef %1) #4 comdat align 2 {
  %3 = alloca ptr, align 8
  %4 = alloca i64, align 8
  store ptr %0, ptr %3, align 8
  store i64 %1, ptr %4, align 8
  %5 = load ptr, ptr %3, align 8
  %6 = getelementptr inbounds nuw %"struct.std::array.7", ptr %5, i32 0, i32 0
  %7 = load i64, ptr %4, align 8
  %8 = call noundef nonnull align 4 dereferenceable(12) ptr @_ZNSt14__array_traitsIN10open_spiel10phantom_go14PhantomGoBoard5ChainELm441EE6_S_refERA441_KS3_m(ptr noundef nonnull align 4 dereferenceable(5292) %6, i64 noundef %7) #3
  ret ptr %8
}

; Function Attrs: mustprogress nounwind uwtable
define linkonce_odr noundef zeroext i16 @_ZNK10open_spiel10phantom_go14PhantomGoBoard9ChainHeadEt(ptr noundef nonnull align 8 dereferenceable(8706) %0, i16 noundef zeroext %1) #4 comdat align 2 {
  %3 = alloca ptr, align 8
  %4 = alloca i16, align 2
  store ptr %0, ptr %3, align 8
  store i16 %1, ptr %4, align 2
  %5 = load ptr, ptr %3, align 8
  %6 = getelementptr inbounds nuw %"class.open_spiel::phantom_go::PhantomGoBoard", ptr %5, i32 0, i32 7
  %7 = load i16, ptr %4, align 2
  %8 = zext i16 %7 to i64
  %9 = call noundef nonnull align 2 dereferenceable(6) ptr @_ZNKSt5arrayIN10open_spiel10phantom_go14PhantomGoBoard6VertexELm441EEixEm(ptr noundef nonnull align 2 dereferenceable(2646) %6, i64 noundef %8) #3
  %10 = getelementptr inbounds nuw %"struct.open_spiel::phantom_go::PhantomGoBoard::Vertex", ptr %9, i32 0, i32 0
  %11 = load i16, ptr %10, align 2
  ret i16 %11
}

; Function Attrs: mustprogress nounwind uwtable
define linkonce_odr noundef nonnull align 2 dereferenceable(6) ptr @_ZNKSt5arrayIN10open_spiel10phantom_go14PhantomGoBoard6VertexELm441EEixEm(ptr noundef nonnull align 2 dereferenceable(2646) %0, i64 noundef %1) #4 comdat align 2 {
  %3 = alloca ptr, align 8
  %4 = alloca i64, align 8
  store ptr %0, ptr %3, align 8
  store i64 %1, ptr %4, align 8
  %5 = load ptr, ptr %3, align 8
  %6 = getelementptr inbounds nuw %"struct.std::array.6", ptr %5, i32 0, i32 0
  %7 = load i64, ptr %4, align 8
  %8 = call noundef nonnull align 2 dereferenceable(6) ptr @_ZNSt14__array_traitsIN10open_spiel10phantom_go14PhantomGoBoard6VertexELm441EE6_S_refERA441_KS3_m(ptr noundef nonnull align 2 dereferenceable(2646) %6, i64 noundef %7) #3
  ret ptr %8
}

; Function Attrs: mustprogress nounwind uwtable
define linkonce_odr noundef zeroext i1 @_ZNK10open_spiel10phantom_go14PhantomGoBoard5Chain8in_atariEv(ptr noundef nonnull align 4 dereferenceable(12) %0) #4 comdat align 2 {
  %2 = alloca ptr, align 8
  store ptr %0, ptr %2, align 8
  %3 = load ptr, ptr %2, align 8
  %4 = getelementptr inbounds nuw %"struct.open_spiel::phantom_go::PhantomGoBoard::Chain", ptr %3, i32 0, i32 3
  %5 = load i16, ptr %4, align 4
  %6 = zext i16 %5 to i32
  %7 = getelementptr inbounds nuw %"struct.open_spiel::phantom_go::PhantomGoBoard::Chain", ptr %3, i32 0, i32 0
  %8 = load i32, ptr %7, align 4
  %9 = mul i32 %6, %8
  %10 = getelementptr inbounds nuw %"struct.open_spiel::phantom_go::PhantomGoBoard::Chain", ptr %3, i32 0, i32 1
  %11 = load i16, ptr %10, align 4
  %12 = zext i16 %11 to i32
  %13 = getelementptr inbounds nuw %"struct.open_spiel::phantom_go::PhantomGoBoard::Chain", ptr %3, i32 0, i32 1
  %14 = load i16, ptr %13, align 4
  %15 = zext i16 %14 to i32
  %16 = mul i32 %12, %15
  %17 = icmp eq i32 %9, %16
  ret i1 %17
}

; Function Attrs: mustprogress nounwind uwtable
define linkonce_odr noundef nonnull align 4 dereferenceable(12) ptr @_ZNK10open_spiel10phantom_go14PhantomGoBoard5chainEt(ptr noundef nonnull align 8 dereferenceable(8706) %0, i16 noundef zeroext %1) #4 comdat align 2 {
  %3 = alloca ptr, align 8
  %4 = alloca i16, align 2
  store ptr %0, ptr %3, align 8
  store i16 %1, ptr %4, align 2
  %5 = load ptr, ptr %3, align 8
  %6 = getelementptr inbounds nuw %"class.open_spiel::phantom_go::PhantomGoBoard", ptr %5, i32 0, i32 9
  %7 = load i16, ptr %4, align 2
  %8 = call noundef zeroext i16 @_ZNK10open_spiel10phantom_go14PhantomGoBoard9ChainHeadEt(ptr noundef nonnull align 8 dereferenceable(8706) %5, i16 noundef zeroext %7)
  %9 = zext i16 %8 to i64
  %10 = call noundef nonnull align 4 dereferenceable(12) ptr @_ZNKSt5arrayIN10open_spiel10phantom_go14PhantomGoBoard5ChainELm441EEixEm(ptr noundef nonnull align 4 dereferenceable(5292) %6, i64 noundef %9) #3
  ret ptr %10
}

; Function Attrs: mustprogress nounwind uwtable
define linkonce_odr noundef zeroext i8 @_ZNK10open_spiel10phantom_go14PhantomGoBoard10PointColorEt(ptr noundef nonnull align 8 dereferenceable(8706) %0, i16 noundef zeroext %1) #4 comdat align 2 {
  %3 = alloca ptr, align 8
  %4 = alloca i16, align 2
  store ptr %0, ptr %3, align 8
  store i16 %1, ptr %4, align 2
  %5 = load ptr, ptr %3, align 8
  %6 = getelementptr inbounds nuw %"class.open_spiel::phantom_go::PhantomGoBoard", ptr %5, i32 0, i32 7
  %7 = load i16, ptr %4, align 2
  %8 = zext i16 %7 to i64
  %9 = call noundef nonnull align 2 dereferenceable(6) ptr @_ZNKSt5arrayIN10open_spiel10phantom_go14PhantomGoBoard6VertexELm441EEixEm(ptr noundef nonnull align 2 dereferenceable(2646) %6, i64 noundef %8) #3
  %10 = getelementptr inbounds nuw %"struct.open_spiel::phantom_go::PhantomGoBoard::Vertex", ptr %9, i32 0, i32 2
  %11 = load i8, ptr %10, align 2
  ret i8 %11
}

; Function Attrs: mustprogress uwtable
define internal void @"_ZZNK10open_spiel10phantom_go14PhantomGoBoard19IsLegalMoveObserverEtNS0_7GoColorEENK3$_1clEt"(ptr noundef nonnull align 8 dereferenceable(24) %0, i16 noundef zeroext %1) #5 align 2 {
  %3 = alloca ptr, align 8
  %4 = alloca i16, align 2
  store ptr %0, ptr %3, align 8
  store i16 %1, ptr %4, align 2
  %5 = load ptr, ptr %3, align 8
  %6 = getelementptr inbounds nuw %class.anon.33, ptr %5, i32 0, i32 0
  %7 = load ptr, ptr %6, align 8
  %8 = load i16, ptr %4, align 2
  %9 = call noundef zeroext i8 @_ZNK10open_spiel10phantom_go14PhantomGoBoard10PointColorEt(ptr noundef nonnull align 8 dereferenceable(8706) %7, i16 noundef zeroext %8)
  %10 = getelementptr inbounds nuw %class.anon.33, ptr %5, i32 0, i32 1
  %11 = load i8, ptr %10, align 8
  %12 = call noundef zeroext i8 @_ZN10open_spiel10phantom_go8OppColorENS0_7GoColorE(i8 noundef zeroext %11)
  %13 = icmp eq i8 %9, %12
  br i1 %13, label %14, label %18

14:                                               ; preds = %2
  %15 = load i16, ptr %4, align 2
  %16 = call noundef nonnull align 4 dereferenceable(12) ptr @_ZNK10open_spiel10phantom_go14PhantomGoBoard5chainEt(ptr noundef nonnull align 8 dereferenceable(8706) %7, i16 noundef zeroext %15)
  %17 = call noundef zeroext i1 @_ZNK10open_spiel10phantom_go14PhantomGoBoard5Chain8in_atariEv(ptr noundef nonnull align 4 dereferenceable(12) %16)
  br label %18

18:                                               ; preds = %14, %2
  %19 = phi i1 [ false, %2 ], [ %17, %14 ]
  %20 = zext i1 %19 to i32
  %21 = getelementptr inbounds nuw %class.anon.33, ptr %5, i32 0, i32 2
  %22 = load ptr, ptr %21, align 8
  %23 = load i8, ptr %22, align 1
  %24 = trunc i8 %23 to i1
  %25 = zext i1 %24 to i32
  %26 = or i32 %25, %20
  %27 = icmp ne i32 %26, 0
  %28 = zext i1 %27 to i8
  store i8 %28, ptr %22, align 1
  ret void
}

; Function Attrs: mustprogress uwtable
define internal void @"_ZN10open_spiel10phantom_go12_GLOBAL__N_110NeighboursIZNKS0_14PhantomGoBoard19IsLegalMoveObserverEtNS0_7GoColorEE3$_1EEvtRKT_"(i16 noundef zeroext %0, ptr noundef nonnull align 8 dereferenceable(24) %1) #5 {
  %3 = alloca i16, align 2
  %4 = alloca ptr, align 8
  store i16 %0, ptr %3, align 2
  store ptr %1, ptr %4, align 8
  %5 = load ptr, ptr %4, align 8
  %6 = load i16, ptr %3, align 2
  %7 = zext i16 %6 to i32
  %8 = add nsw i32 %7, 21
  %9 = trunc i32 %8 to i16
  call void @"_ZZNK10open_spiel10phantom_go14PhantomGoBoard19IsLegalMoveObserverEtNS0_7GoColorEENK3$_1clEt"(ptr noundef nonnull align 8 dereferenceable(24) %5, i16 noundef zeroext %9)
  %10 = load ptr, ptr %4, align 8
  %11 = load i16, ptr %3, align 2
  %12 = zext i16 %11 to i32
  %13 = add nsw i32 %12, 1
  %14 = trunc i32 %13 to i16
  call void @"_ZZNK10open_spiel10phantom_go14PhantomGoBoard19IsLegalMoveObserverEtNS0_7GoColorEENK3$_1clEt"(ptr noundef nonnull align 8 dereferenceable(24) %10, i16 noundef zeroext %14)
  %15 = load ptr, ptr %4, align 8
  %16 = load i16, ptr %3, align 2
  %17 = zext i16 %16 to i32
  %18 = sub nsw i32 %17, 1
  %19 = trunc i32 %18 to i16
  call void @"_ZZNK10open_spiel10phantom_go14PhantomGoBoard19IsLegalMoveObserverEtNS0_7GoColorEENK3$_1clEt"(ptr noundef nonnull align 8 dereferenceable(24) %15, i16 noundef zeroext %19)
  %20 = load ptr, ptr %4, align 8
  %21 = load i16, ptr %3, align 2
  %22 = zext i16 %21 to i32
  %23 = sub nsw i32 %22, 21
  %24 = trunc i32 %23 to i16
  call void @"_ZZNK10open_spiel10phantom_go14PhantomGoBoard19IsLegalMoveObserverEtNS0_7GoColorEENK3$_1clEt"(ptr noundef nonnull align 8 dereferenceable(24) %20, i16 noundef zeroext %24)
  ret void
}