; Function Attrs: mustprogress uwtable
define internal fastcc void @"_ZN10open_spiel10phantom_go12_GLOBAL__N_110NeighboursIZNKS0_14PhantomGoBoard19IsLegalMoveObserverEtNS0_7GoColorEE3$_1EEvtRKT_"(i16 noundef zeroext %0, ptr nocapture noundef nonnull readonly align 8 dereferenceable(24) %1) unnamed_addr #8 {
  %3 = add i16 %0, 21
  %4 = load ptr, ptr %1, align 8
  %5 = getelementptr inbounds nuw i8, ptr %4, i64 740
  %6 = zext i16 %3 to i64
  %7 = getelementptr inbounds [441 x %"struct.open_spiel::phantom_go::PhantomGoBoard::Vertex"], ptr %5, i64 0, i64 %6, i32 2
  %8 = load i8, ptr %7, align 2
  %9 = getelementptr inbounds nuw i8, ptr %1, i64 8
  %10 = load i8, ptr %9, align 8
  %11 = tail call noundef zeroext i8 @_ZN10open_spiel10phantom_go8OppColorENS0_7GoColorE(i8 noundef zeroext %10)
  %12 = icmp eq i8 %8, %11
  br i1 %12, label %13, label %"_ZZNK10open_spiel10phantom_go14PhantomGoBoard19IsLegalMoveObserverEtNS0_7GoColorEENK3$_1clEt.exit"

13:                                               ; preds = %2
  %14 = getelementptr inbounds nuw i8, ptr %4, i64 3388
  %15 = getelementptr inbounds [441 x %"struct.open_spiel::phantom_go::PhantomGoBoard::Vertex"], ptr %5, i64 0, i64 %6
  %16 = load i16, ptr %15, align 2
  %17 = zext i16 %16 to i64
  %18 = getelementptr inbounds [441 x %"struct.open_spiel::phantom_go::PhantomGoBoard::Chain"], ptr %14, i64 0, i64 %17
  %19 = getelementptr inbounds nuw i8, ptr %18, i64 8
  %20 = load i16, ptr %19, align 4
  %21 = zext i16 %20 to i32
  %22 = load i32, ptr %18, align 4
  %23 = mul i32 %22, %21
  %24 = getelementptr inbounds nuw i8, ptr %18, i64 4
  %25 = load i16, ptr %24, align 4
  %26 = zext i16 %25 to i32
  %27 = mul nuw i32 %26, %26
  %28 = icmp eq i32 %23, %27
  %29 = zext i1 %28 to i8
  br label %"_ZZNK10open_spiel10phantom_go14PhantomGoBoard19IsLegalMoveObserverEtNS0_7GoColorEENK3$_1clEt.exit"

"_ZZNK10open_spiel10phantom_go14PhantomGoBoard19IsLegalMoveObserverEtNS0_7GoColorEENK3$_1clEt.exit": ; preds = %2, %13
  %30 = phi i8 [ 0, %2 ], [ %29, %13 ]
  %31 = getelementptr inbounds nuw i8, ptr %1, i64 16
  %32 = load ptr, ptr %31, align 8
  %33 = load i8, ptr %32, align 1
  %34 = and i8 %33, 1
  %35 = or i8 %34, %30
  store i8 %35, ptr %32, align 1
  %36 = add i16 %0, 1
  %37 = load ptr, ptr %1, align 8
  %38 = getelementptr inbounds nuw i8, ptr %37, i64 740
  %39 = zext i16 %36 to i64
  %40 = getelementptr inbounds [441 x %"struct.open_spiel::phantom_go::PhantomGoBoard::Vertex"], ptr %38, i64 0, i64 %39, i32 2
  %41 = load i8, ptr %40, align 2
  %42 = load i8, ptr %9, align 8
  %43 = tail call noundef zeroext i8 @_ZN10open_spiel10phantom_go8OppColorENS0_7GoColorE(i8 noundef zeroext %42)
  %44 = icmp eq i8 %41, %43
  br i1 %44, label %45, label %"_ZZNK10open_spiel10phantom_go14PhantomGoBoard19IsLegalMoveObserverEtNS0_7GoColorEENK3$_1clEt.exit7"

45:                                               ; preds = %"_ZZNK10open_spiel10phantom_go14PhantomGoBoard19IsLegalMoveObserverEtNS0_7GoColorEENK3$_1clEt.exit"
  %46 = getelementptr inbounds nuw i8, ptr %37, i64 3388
  %47 = getelementptr inbounds [441 x %"struct.open_spiel::phantom_go::PhantomGoBoard::Vertex"], ptr %38, i64 0, i64 %39
  %48 = load i16, ptr %47, align 2
  %49 = zext i16 %48 to i64
  %50 = getelementptr inbounds [441 x %"struct.open_spiel::phantom_go::PhantomGoBoard::Chain"], ptr %46, i64 0, i64 %49
  %51 = getelementptr inbounds nuw i8, ptr %50, i64 8
  %52 = load i16, ptr %51, align 4
  %53 = zext i16 %52 to i32
  %54 = load i32, ptr %50, align 4
  %55 = mul i32 %54, %53
  %56 = getelementptr inbounds nuw i8, ptr %50, i64 4
  %57 = load i16, ptr %56, align 4
  %58 = zext i16 %57 to i32
  %59 = mul nuw i32 %58, %58
  %60 = icmp eq i32 %55, %59
  %61 = zext i1 %60 to i8
  br label %"_ZZNK10open_spiel10phantom_go14PhantomGoBoard19IsLegalMoveObserverEtNS0_7GoColorEENK3$_1clEt.exit7"

"_ZZNK10open_spiel10phantom_go14PhantomGoBoard19IsLegalMoveObserverEtNS0_7GoColorEENK3$_1clEt.exit7": ; preds = %"_ZZNK10open_spiel10phantom_go14PhantomGoBoard19IsLegalMoveObserverEtNS0_7GoColorEENK3$_1clEt.exit", %45
  %62 = phi i8 [ 0, %"_ZZNK10open_spiel10phantom_go14PhantomGoBoard19IsLegalMoveObserverEtNS0_7GoColorEENK3$_1clEt.exit" ], [ %61, %45 ]
  %63 = load ptr, ptr %31, align 8
  %64 = load i8, ptr %63, align 1
  %65 = and i8 %64, 1
  %66 = or i8 %65, %62
  store i8 %66, ptr %63, align 1
  %67 = add i16 %0, -1
  %68 = load ptr, ptr %1, align 8
  %69 = getelementptr inbounds nuw i8, ptr %68, i64 740
  %70 = zext i16 %67 to i64
  %71 = getelementptr inbounds [441 x %"struct.open_spiel::phantom_go::PhantomGoBoard::Vertex"], ptr %69, i64 0, i64 %70, i32 2
  %72 = load i8, ptr %71, align 2
  %73 = load i8, ptr %9, align 8
  %74 = tail call noundef zeroext i8 @_ZN10open_spiel10phantom_go8OppColorENS0_7GoColorE(i8 noundef zeroext %73)
  %75 = icmp eq i8 %72, %74
  br i1 %75, label %76, label %"_ZZNK10open_spiel10phantom_go14PhantomGoBoard19IsLegalMoveObserverEtNS0_7GoColorEENK3$_1clEt.exit8"

76:                                               ; preds = %"_ZZNK10open_spiel10phantom_go14PhantomGoBoard19IsLegalMoveObserverEtNS0_7GoColorEENK3$_1clEt.exit7"
  %77 = getelementptr inbounds nuw i8, ptr %68, i64 3388
  %78 = getelementptr inbounds [441 x %"struct.open_spiel::phantom_go::PhantomGoBoard::Vertex"], ptr %69, i64 0, i64 %70
  %79 = load i16, ptr %78, align 2
  %80 = zext i16 %79 to i64
  %81 = getelementptr inbounds [441 x %"struct.open_spiel::phantom_go::PhantomGoBoard::Chain"], ptr %77, i64 0, i64 %80
  %82 = getelementptr inbounds nuw i8, ptr %81, i64 8
  %83 = load i16, ptr %82, align 4
  %84 = zext i16 %83 to i32
  %85 = load i32, ptr %81, align 4
  %86 = mul i32 %85, %84
  %87 = getelementptr inbounds nuw i8, ptr %81, i64 4
  %88 = load i16, ptr %87, align 4
  %89 = zext i16 %88 to i32
  %90 = mul nuw i32 %89, %89
  %91 = icmp eq i32 %86, %90
  %92 = zext i1 %91 to i8
  br label %"_ZZNK10open_spiel10phantom_go14PhantomGoBoard19IsLegalMoveObserverEtNS0_7GoColorEENK3$_1clEt.exit8"

"_ZZNK10open_spiel10phantom_go14PhantomGoBoard19IsLegalMoveObserverEtNS0_7GoColorEENK3$_1clEt.exit8": ; preds = %"_ZZNK10open_spiel10phantom_go14PhantomGoBoard19IsLegalMoveObserverEtNS0_7GoColorEENK3$_1clEt.exit7", %76
  %93 = phi i8 [ 0, %"_ZZNK10open_spiel10phantom_go14PhantomGoBoard19IsLegalMoveObserverEtNS0_7GoColorEENK3$_1clEt.exit7" ], [ %92, %76 ]
  %94 = load ptr, ptr %31, align 8
  %95 = load i8, ptr %94, align 1
  %96 = and i8 %95, 1
  %97 = or i8 %96, %93
  store i8 %97, ptr %94, align 1
  %98 = add i16 %0, -21
  %99 = load ptr, ptr %1, align 8
  %100 = getelementptr inbounds nuw i8, ptr %99, i64 740
  %101 = zext i16 %98 to i64
  %102 = getelementptr inbounds [441 x %"struct.open_spiel::phantom_go::PhantomGoBoard::Vertex"], ptr %100, i64 0, i64 %101, i32 2
  %103 = load i8, ptr %102, align 2
  %104 = load i8, ptr %9, align 8
  %105 = tail call noundef zeroext i8 @_ZN10open_spiel10phantom_go8OppColorENS0_7GoColorE(i8 noundef zeroext %104)
  %106 = icmp eq i8 %103, %105
  br i1 %106, label %107, label %"_ZZNK10open_spiel10phantom_go14PhantomGoBoard19IsLegalMoveObserverEtNS0_7GoColorEENK3$_1clEt.exit9"

107:                                              ; preds = %"_ZZNK10open_spiel10phantom_go14PhantomGoBoard19IsLegalMoveObserverEtNS0_7GoColorEENK3$_1clEt.exit8"
  %108 = getelementptr inbounds nuw i8, ptr %99, i64 3388
  %109 = getelementptr inbounds [441 x %"struct.open_spiel::phantom_go::PhantomGoBoard::Vertex"], ptr %100, i64 0, i64 %101
  %110 = load i16, ptr %109, align 2
  %111 = zext i16 %110 to i64
  %112 = getelementptr inbounds [441 x %"struct.open_spiel::phantom_go::PhantomGoBoard::Chain"], ptr %108, i64 0, i64 %111
  %113 = getelementptr inbounds nuw i8, ptr %112, i64 8
  %114 = load i16, ptr %113, align 4
  %115 = zext i16 %114 to i32
  %116 = load i32, ptr %112, align 4
  %117 = mul i32 %116, %115
  %118 = getelementptr inbounds nuw i8, ptr %112, i64 4
  %119 = load i16, ptr %118, align 4
  %120 = zext i16 %119 to i32
  %121 = mul nuw i32 %120, %120
  %122 = icmp eq i32 %117, %121
  %123 = zext i1 %122 to i8
  br label %"_ZZNK10open_spiel10phantom_go14PhantomGoBoard19IsLegalMoveObserverEtNS0_7GoColorEENK3$_1clEt.exit9"

"_ZZNK10open_spiel10phantom_go14PhantomGoBoard19IsLegalMoveObserverEtNS0_7GoColorEENK3$_1clEt.exit9": ; preds = %"_ZZNK10open_spiel10phantom_go14PhantomGoBoard19IsLegalMoveObserverEtNS0_7GoColorEENK3$_1clEt.exit8", %107
  %124 = phi i8 [ 0, %"_ZZNK10open_spiel10phantom_go14PhantomGoBoard19IsLegalMoveObserverEtNS0_7GoColorEENK3$_1clEt.exit8" ], [ %123, %107 ]
  %125 = load ptr, ptr %31, align 8
  %126 = load i8, ptr %125, align 1
  %127 = and i8 %126, 1
  %128 = or i8 %127, %124
  store i8 %128, ptr %125, align 1
  ret void
}